target datalayout = "e-m:e-p270:32:32-p271:32:32-p272:64:64-i64:64-i128:128-f80:128-n8:16:32:64-S128"
target triple = "x86_64-pc-linux-gnu"

%struct.gvplugin_available_s = type { ptr, ptr, i32, ptr, ptr }
%struct.gvplugin_installed_t = type { i32, ptr, i32, ptr, ptr }
%struct.GVC_s = type { %struct.GVCOMMON_s, ptr, i8, ptr, i32, ptr, ptr, [5 x ptr], [5 x ptr], ptr, ptr, %struct.dtdisc_s_, ptr, %struct.gvplugin_active_textlayout_s, ptr, ptr, ptr, %struct.gvplugin_active_layout_s, ptr, ptr, ptr, %struct.pointf_s, %struct.pointf_s, %struct.pointf_s, %struct.point, %struct.boxf, i32, i8, i8, i8, ptr, ptr, ptr, ptr, i32, ptr, ptr, double, ptr, %struct.color_s, i32 }
%struct.GVCOMMON_s = type { ptr, ptr, i32, i8, i8, ptr, ptr, ptr, i32, ptr, i32 }
%struct.dtdisc_s_ = type { i32, i32, i32, ptr, ptr, ptr }
%struct.gvplugin_active_textlayout_s = type { ptr, i32, ptr }
%struct.gvplugin_active_layout_s = type { ptr, i32, ptr, ptr }
%struct.pointf_s = type { double, double }
%struct.point = type { i32, i32 }
%struct.boxf = type { %struct.pointf_s, %struct.pointf_s }
%struct.color_s = type { %union.anon, i32 }
%union.anon = type { [4 x double] }
%struct.Agobj_s = type { %struct.Agtag_s, ptr }
%struct.Agtag_s = type { i32, i64 }
%struct.Agraphinfo_t = type { %struct.Agrec_s, ptr, ptr, %struct.boxf, [4 x %struct.pointf_s], i8, i8, i8, i8, i32, double, double, i16, ptr, ptr, ptr, ptr, i32, ptr, ptr, ptr, ptr, i16, i16, i32, ptr, ptr, ptr, ptr, ptr, i32, ptr, ptr, %struct.nlist_t, ptr, ptr, i32, i32, i8, i8, i32, i32, i32, ptr, ptr, ptr, ptr, i8, i8, i8, i8, i8 }
%struct.Agrec_s = type { ptr, ptr }
%struct.nlist_t = type { ptr, i64 }
%struct.gvlayout_features_t = type { i32 }
%struct.gvlayout_engine_s = type { ptr, ptr }

@.str = private unnamed_addr constant [13 x i8] c"Agraphinfo_t\00", align 1
@.str.1 = private unnamed_addr constant [7 x i8] c"layout\00", align 1
@.str.2 = private unnamed_addr constant [49 x i8] c"Layout type: \22%s\22 not recognized. Use one of:%s\0A\00", align 1

; Function Attrs: nounwind uwtable
define i32 @gvlayout_select(ptr noundef %0, ptr noundef %1) #0 {
  %3 = alloca i32, align 4
  %4 = alloca ptr, align 8
  %5 = alloca ptr, align 8
  %6 = alloca ptr, align 8
  %7 = alloca ptr, align 8
  %8 = alloca i32, align 4
  store ptr %0, ptr %4, align 8, !tbaa !3
  store ptr %1, ptr %5, align 8, !tbaa !8
  call void @llvm.lifetime.start.p0(i64 8, ptr %6) #3
  call void @llvm.lifetime.start.p0(i64 8, ptr %7) #3
  %9 = load ptr, ptr %4, align 8, !tbaa !3
  %10 = load ptr, ptr %5, align 8, !tbaa !8
  %11 = call ptr @gvplugin_load(ptr noundef %9, i32 noundef 1, ptr noundef %10, ptr noundef null)
  store ptr %11, ptr %6, align 8, !tbaa !10
  %12 = load ptr, ptr %6, align 8, !tbaa !10
  %13 = icmp ne ptr %12, null
  br i1 %13, label %14, label %42

14:                                               ; preds = %2
  %15 = load ptr, ptr %6, align 8, !tbaa !10
  %16 = getelementptr inbounds nuw %struct.gvplugin_available_s, ptr %15, i32 0, i32 4
  %17 = load ptr, ptr %16, align 8, !tbaa !12
  store ptr %17, ptr %7, align 8, !tbaa !16
  %18 = load ptr, ptr %7, align 8, !tbaa !16
  %19 = getelementptr inbounds nuw %struct.gvplugin_installed_t, ptr %18, i32 0, i32 1
  %20 = load ptr, ptr %19, align 8, !tbaa !17
  %21 = load ptr, ptr %4, align 8, !tbaa !3
  %22 = getelementptr inbounds nuw %struct.GVC_s, ptr %21, i32 0, i32 17
  %23 = getelementptr inbounds nuw %struct.gvplugin_active_layout_s, ptr %22, i32 0, i32 3
  store ptr %20, ptr %23, align 8, !tbaa !19
  %24 = load ptr, ptr %7, align 8, !tbaa !16
  %25 = getelementptr inbounds nuw %struct.gvplugin_installed_t, ptr %24, i32 0, i32 3
  %26 = load ptr, ptr %25, align 8, !tbaa !39
  %27 = load ptr, ptr %4, align 8, !tbaa !3
  %28 = getelementptr inbounds nuw %struct.GVC_s, ptr %27, i32 0, i32 17
  %29 = getelementptr inbounds nuw %struct.gvplugin_active_layout_s, ptr %28, i32 0, i32 0
  store ptr %26, ptr %29, align 8, !tbaa !40
  %30 = load ptr, ptr %7, align 8, !tbaa !16
  %31 = getelementptr inbounds nuw %struct.gvplugin_installed_t, ptr %30, i32 0, i32 0
  %32 = load i32, ptr %31, align 8, !tbaa !41
  %33 = load ptr, ptr %4, align 8, !tbaa !3
  %34 = getelementptr inbounds nuw %struct.GVC_s, ptr %33, i32 0, i32 17
  %35 = getelementptr inbounds nuw %struct.gvplugin_active_layout_s, ptr %34, i32 0, i32 1
  store i32 %32, ptr %35, align 8, !tbaa !42
  %36 = load ptr, ptr %7, align 8, !tbaa !16
  %37 = getelementptr inbounds nuw %struct.gvplugin_installed_t, ptr %36, i32 0, i32 4
  %38 = load ptr, ptr %37, align 8, !tbaa !43
  %39 = load ptr, ptr %4, align 8, !tbaa !3
  %40 = getelementptr inbounds nuw %struct.GVC_s, ptr %39, i32 0, i32 17
  %41 = getelementptr inbounds nuw %struct.gvplugin_active_layout_s, ptr %40, i32 0, i32 2
  store ptr %38, ptr %41, align 8, !tbaa !44
  store i32 300, ptr %3, align 4
  store i32 1, ptr %8, align 4
  br label %43

42:                                               ; preds = %2
  store i32 999, ptr %3, align 4
  store i32 1, ptr %8, align 4
  br label %43

43:                                               ; preds = %42, %14
  call void @llvm.lifetime.end.p0(i64 8, ptr %7) #3
  call void @llvm.lifetime.end.p0(i64 8, ptr %6) #3
  %44 = load i32, ptr %3, align 4
  ret i32 %44
}

; Function Attrs: nounwind uwtable
define i32 @gvLayoutJobs(ptr noundef %0, ptr noundef %1) #0 {
  %3 = alloca i32, align 4
  %4 = alloca ptr, align 8
  %5 = alloca ptr, align 8
  %6 = alloca ptr, align 8
  %7 = alloca ptr, align 8
  %8 = alloca i32, align 4
  %9 = alloca i32, align 4
  store ptr %0, ptr %4, align 8, !tbaa !3
  store ptr %1, ptr %5, align 8, !tbaa !45
  call void @llvm.lifetime.start.p0(i64 8, ptr %6) #3
  call void @llvm.lifetime.start.p0(i64 8, ptr %7) #3
  call void @llvm.lifetime.start.p0(i64 4, ptr %8) #3
  %10 = load ptr, ptr %5, align 8, !tbaa !45
  %11 = call ptr @agbindrec(ptr noundef %10, ptr noundef @.str, i32 noundef 400, i32 noundef 1)
  %12 = load ptr, ptr %4, align 8, !tbaa !3
  %13 = load ptr, ptr %5, align 8, !tbaa !45
  %14 = getelementptr inbounds nuw %struct.Agobj_s, ptr %13, i32 0, i32 1
  %15 = load ptr, ptr %14, align 8, !tbaa !46
  %16 = getelementptr inbounds nuw %struct.Agraphinfo_t, ptr %15, i32 0, i32 14
  store ptr %12, ptr %16, align 8, !tbaa !51
  %17 = load ptr, ptr %5, align 8, !tbaa !45
  %18 = load ptr, ptr %5, align 8, !tbaa !45
  %19 = call ptr @agroot(ptr noundef %18)
  %20 = icmp ne ptr %17, %19
  br i1 %20, label %21, label %31

21:                                               ; preds = %2
  %22 = load ptr, ptr %5, align 8, !tbaa !45
  %23 = call ptr @agroot(ptr noundef %22)
  %24 = call ptr @agbindrec(ptr noundef %23, ptr noundef @.str, i32 noundef 400, i32 noundef 1)
  %25 = load ptr, ptr %4, align 8, !tbaa !3
  %26 = load ptr, ptr %5, align 8, !tbaa !45
  %27 = call ptr @agroot(ptr noundef %26)
  %28 = getelementptr inbounds nuw %struct.Agobj_s, ptr %27, i32 0, i32 1
  %29 = load ptr, ptr %28, align 8, !tbaa !46
  %30 = getelementptr inbounds nuw %struct.Agraphinfo_t, ptr %29, i32 0, i32 14
  store ptr %25, ptr %30, align 8, !tbaa !51
  br label %31

31:                                               ; preds = %21, %2
  %32 = load ptr, ptr %5, align 8, !tbaa !45
  %33 = call ptr @agget(ptr noundef %32, ptr noundef @.str.1)
  store ptr %33, ptr %7, align 8, !tbaa !8
  %34 = icmp ne ptr %33, null
  br i1 %34, label %35, label %50

35:                                               ; preds = %31
  %36 = load ptr, ptr %4, align 8, !tbaa !3
  %37 = getelementptr inbounds nuw %struct.GVC_s, ptr %36, i32 0, i32 17
  %38 = getelementptr inbounds nuw %struct.gvplugin_active_layout_s, ptr %37, i32 0, i32 0
  store ptr null, ptr %38, align 8, !tbaa !40
  %39 = load ptr, ptr %4, align 8, !tbaa !3
  %40 = load ptr, ptr %7, align 8, !tbaa !8
  %41 = call i32 @gvlayout_select(ptr noundef %39, ptr noundef %40)
  store i32 %41, ptr %8, align 4, !tbaa !64
  %42 = load i32, ptr %8, align 4, !tbaa !64
  %43 = icmp eq i32 %42, 999
  br i1 %43, label %44, label %49

44:                                               ; preds = %35
  %45 = load ptr, ptr %7, align 8, !tbaa !8
  %46 = load ptr, ptr %4, align 8, !tbaa !3
  %47 = load ptr, ptr %7, align 8, !tbaa !8
  %48 = call ptr @gvplugin_list(ptr noundef %46, i32 noundef 1, ptr noundef %47)
  call void (ptr, ...) @agerrorf(ptr noundef @.str.2, ptr noundef %45, ptr noundef %48)
  store i32 -1, ptr %3, align 4
  store i32 1, ptr %9, align 4
  br label %106

49:                                               ; preds = %35
  br label %50

50:                                               ; preds = %49, %31
  %51 = load ptr, ptr %4, align 8, !tbaa !3
  %52 = getelementptr inbounds nuw %struct.GVC_s, ptr %51, i32 0, i32 17
  %53 = getelementptr inbounds nuw %struct.gvplugin_active_layout_s, ptr %52, i32 0, i32 0
  %54 = load ptr, ptr %53, align 8, !tbaa !40
  store ptr %54, ptr %6, align 8, !tbaa !65
  %55 = load ptr, ptr %6, align 8, !tbaa !65
  %56 = icmp ne ptr %55, null
  br i1 %56, label %58, label %57

57:                                               ; preds = %50
  store i32 -1, ptr %3, align 4
  store i32 1, ptr %9, align 4
  br label %106

58:                                               ; preds = %50
  call void @gv_fixLocale(i32 noundef 1)
  %59 = load ptr, ptr %5, align 8, !tbaa !45
  %60 = load ptr, ptr %4, align 8, !tbaa !3
  %61 = getelementptr inbounds nuw %struct.GVC_s, ptr %60, i32 0, i32 17
  %62 = getelementptr inbounds nuw %struct.gvplugin_active_layout_s, ptr %61, i32 0, i32 2
  %63 = load ptr, ptr %62, align 8, !tbaa !44
  %64 = getelementptr inbounds nuw %struct.gvlayout_features_t, ptr %63, i32 0, i32 0
  %65 = load i32, ptr %64, align 4, !tbaa !66
  %66 = and i32 %65, 1
  %67 = icmp ne i32 %66, 0
  %68 = xor i1 %67, true
  %69 = xor i1 %68, true
  call void @graph_init(ptr noundef %59, i1 noundef zeroext %69)
  %70 = load ptr, ptr %5, align 8, !tbaa !45
  %71 = getelementptr inbounds nuw %struct.Agobj_s, ptr %70, i32 0, i32 1
  %72 = load ptr, ptr %71, align 8, !tbaa !46
  %73 = getelementptr inbounds nuw %struct.Agraphinfo_t, ptr %72, i32 0, i32 1
  %74 = load ptr, ptr %73, align 8, !tbaa !68
  %75 = load ptr, ptr %5, align 8, !tbaa !45
  %76 = call ptr @agroot(ptr noundef %75)
  %77 = getelementptr inbounds nuw %struct.Agobj_s, ptr %76, i32 0, i32 1
  %78 = load ptr, ptr %77, align 8, !tbaa !46
  %79 = getelementptr inbounds nuw %struct.Agraphinfo_t, ptr %78, i32 0, i32 1
  store ptr %74, ptr %79, align 8, !tbaa !68
  %80 = load ptr, ptr %6, align 8, !tbaa !65
  %81 = icmp ne ptr %80, null
  br i1 %81, label %82, label %105

82:                                               ; preds = %58
  %83 = load ptr, ptr %6, align 8, !tbaa !65
  %84 = getelementptr inbounds nuw %struct.gvlayout_engine_s, ptr %83, i32 0, i32 0
  %85 = load ptr, ptr %84, align 8, !tbaa !69
  %86 = icmp ne ptr %85, null
  br i1 %86, label %87, label %105

87:                                               ; preds = %82
  %88 = load ptr, ptr %6, align 8, !tbaa !65
  %89 = getelementptr inbounds nuw %struct.gvlayout_engine_s, ptr %88, i32 0, i32 0
  %90 = load ptr, ptr %89, align 8, !tbaa !69
  %91 = load ptr, ptr %5, align 8, !tbaa !45
  call void %90(ptr noundef %91)
  %92 = load ptr, ptr %6, align 8, !tbaa !65
  %93 = getelementptr inbounds nuw %struct.gvlayout_engine_s, ptr %92, i32 0, i32 1
  %94 = load ptr, ptr %93, align 8, !tbaa !71
  %95 = icmp ne ptr %94, null
  br i1 %95, label %96, label %104

96:                                               ; preds = %87
  %97 = load ptr, ptr %6, align 8, !tbaa !65
  %98 = getelementptr inbounds nuw %struct.gvlayout_engine_s, ptr %97, i32 0, i32 1
  %99 = load ptr, ptr %98, align 8, !tbaa !71
  %100 = load ptr, ptr %5, align 8, !tbaa !45
  %101 = getelementptr inbounds nuw %struct.Agobj_s, ptr %100, i32 0, i32 1
  %102 = load ptr, ptr %101, align 8, !tbaa !46
  %103 = getelementptr inbounds nuw %struct.Agraphinfo_t, ptr %102, i32 0, i32 15
  store ptr %99, ptr %103, align 8, !tbaa !72
  br label %104

104:                                              ; preds = %96, %87
  br label %105

105:                                              ; preds = %104, %82, %58
  call void @gv_fixLocale(i32 noundef 0)
  store i32 0, ptr %3, align 4
  store i32 1, ptr %9, align 4
  br label %106

106:                                              ; preds = %105, %57, %44
  call void @llvm.lifetime.end.p0(i64 4, ptr %8) #3
  call void @llvm.lifetime.end.p0(i64 8, ptr %7) #3
  call void @llvm.lifetime.end.p0(i64 8, ptr %6) #3
  %107 = load i32, ptr %3, align 4
  ret i32 %107
}