; Function Attrs: nounwind uwtable
define range(i32 -1, 1) i32 @gvLayoutJobs(ptr noundef %0, ptr noundef %1) local_unnamed_addr #0 {
  %3 = tail call ptr @agbindrec(ptr noundef %1, ptr noundef nonnull @.str, i32 noundef 400, i32 noundef 1) #2
  %4 = getelementptr inbounds nuw i8, ptr %1, i64 16
  %5 = load ptr, ptr %4, align 8, !tbaa !40
  %6 = getelementptr inbounds nuw i8, ptr %5, i64 168
  store ptr %0, ptr %6, align 8, !tbaa !45
  %7 = tail call ptr @agroot(ptr noundef %1) #2
  %.not = icmp eq ptr %1, %7
  br i1 %.not, label %15, label %8

8:                                                ; preds = %2
  %9 = tail call ptr @agroot(ptr noundef nonnull %1) #2
  %10 = tail call ptr @agbindrec(ptr noundef %9, ptr noundef nonnull @.str, i32 noundef 400, i32 noundef 1) #2
  %11 = tail call ptr @agroot(ptr noundef nonnull %1) #2
  %12 = getelementptr inbounds nuw i8, ptr %11, i64 16
  %13 = load ptr, ptr %12, align 8, !tbaa !40
  %14 = getelementptr inbounds nuw i8, ptr %13, i64 168
  store ptr %0, ptr %14, align 8, !tbaa !45
  br label %15

15:                                               ; preds = %8, %2
  %16 = tail call ptr @agget(ptr noundef nonnull %1, ptr noundef nonnull @.str.1) #2
  %.not34 = icmp eq ptr %16, null
  %.phi.trans.insert = getelementptr inbounds nuw i8, ptr %0, i64 312
  br i1 %.not34, label %._crit_edge, label %17

._crit_edge:                                      ; preds = %15
  %.pre = load ptr, ptr %.phi.trans.insert, align 8, !tbaa !35
  br label %33

17:                                               ; preds = %15
  store ptr null, ptr %.phi.trans.insert, align 8, !tbaa !35
  %18 = tail call ptr @gvplugin_load(ptr noundef %0, i32 noundef 1, ptr noundef nonnull %16, ptr noundef null) #2
  %.not.i = icmp eq ptr %18, null
  br i1 %.not.i, label %31, label %gvlayout_select.exit

gvlayout_select.exit:                             ; preds = %17
  %19 = getelementptr inbounds nuw i8, ptr %18, i64 32
  %20 = load ptr, ptr %19, align 8, !tbaa !3
  %21 = getelementptr inbounds nuw i8, ptr %20, i64 8
  %22 = load ptr, ptr %21, align 8, !tbaa !12
  %23 = getelementptr inbounds nuw i8, ptr %0, i64 336
  store ptr %22, ptr %23, align 8, !tbaa !14
  %24 = getelementptr inbounds nuw i8, ptr %20, i64 24
  %25 = load ptr, ptr %24, align 8, !tbaa !34
  store ptr %25, ptr %.phi.trans.insert, align 8, !tbaa !35
  %26 = load i32, ptr %20, align 8, !tbaa !36
  %27 = getelementptr inbounds nuw i8, ptr %0, i64 320
  store i32 %26, ptr %27, align 8, !tbaa !37
  %28 = getelementptr inbounds nuw i8, ptr %20, i64 32
  %29 = load ptr, ptr %28, align 8, !tbaa !38
  %30 = getelementptr inbounds nuw i8, ptr %0, i64 328
  store ptr %29, ptr %30, align 8, !tbaa !39
  br label %33

31:                                               ; preds = %17
  %32 = tail call ptr @gvplugin_list(ptr noundef nonnull %0, i32 noundef 1, ptr noundef nonnull %16) #2
  tail call void (ptr, ...) @agerrorf(ptr noundef nonnull @.str.2, ptr noundef nonnull %16, ptr noundef %32) #2
  br label %56

33:                                               ; preds = %._crit_edge, %gvlayout_select.exit
  %34 = phi ptr [ %.pre, %._crit_edge ], [ %25, %gvlayout_select.exit ]
  %.not35 = icmp eq ptr %34, null
  br i1 %.not35, label %56, label %35

35:                                               ; preds = %33
  tail call void @gv_fixLocale(i32 noundef 1) #2
  %36 = getelementptr inbounds nuw i8, ptr %0, i64 328
  %37 = load ptr, ptr %36, align 8, !tbaa !39
  %38 = load i32, ptr %37, align 4, !tbaa !59
  %39 = and i32 %38, 1
  %40 = icmp ne i32 %39, 0
  tail call void @graph_init(ptr noundef nonnull %1, i1 noundef zeroext %40) #2
  %41 = load ptr, ptr %4, align 8, !tbaa !40
  %42 = getelementptr inbounds nuw i8, ptr %41, i64 16
  %43 = load ptr, ptr %42, align 8, !tbaa !61
  %44 = tail call ptr @agroot(ptr noundef nonnull %1) #2
  %45 = getelementptr inbounds nuw i8, ptr %44, i64 16
  %46 = load ptr, ptr %45, align 8, !tbaa !40
  %47 = getelementptr inbounds nuw i8, ptr %46, i64 16
  store ptr %43, ptr %47, align 8, !tbaa !61
  %48 = load ptr, ptr %34, align 8, !tbaa !62
  %.not36 = icmp eq ptr %48, null
  br i1 %.not36, label %55, label %49

49:                                               ; preds = %35
  tail call void %48(ptr noundef nonnull %1) #2
  %50 = getelementptr inbounds nuw i8, ptr %34, i64 8
  %51 = load ptr, ptr %50, align 8, !tbaa !64
  %.not37 = icmp eq ptr %51, null
  br i1 %.not37, label %55, label %52

52:                                               ; preds = %49
  %53 = load ptr, ptr %4, align 8, !tbaa !40
  %54 = getelementptr inbounds nuw i8, ptr %53, i64 176
  store ptr %51, ptr %54, align 8, !tbaa !65
  br label %55

55:                                               ; preds = %49, %52, %35
  tail call void @gv_fixLocale(i32 noundef 0) #2
  br label %56

56:                                               ; preds = %33, %55, %31
  %.0 = phi i32 [ -1, %31 ], [ 0, %55 ], [ -1, %33 ]
  ret i32 %.0
}